; Function Attrs: mustprogress uwtable
define dso_local void @_ZN2EA4StdC8Callback4CallEmm(ptr noundef nonnull align 8 dereferenceable(80) %this, i64 noundef %absoluteValue, i64 noundef %deltaValue) local_unnamed_addr #1 align 2 {
entry:
  %mpFunction = getelementptr inbounds i8, ptr %this, i64 32
  %0 = load ptr, ptr %mpFunction, align 8
  %tobool.not = icmp eq ptr %0, null
  br i1 %tobool.not, label %if.end, label %if.then

if.then:                                          ; preds = %entry
  %mpFunctionArg = getelementptr inbounds i8, ptr %this, i64 40
  %1 = load ptr, ptr %mpFunctionArg, align 8
  tail call void %0(ptr noundef nonnull %this, ptr noundef %1, i64 noundef %absoluteValue, i64 noundef %deltaValue)
  br label %if.end

if.end:                                           ; preds = %if.then, %entry
  ret void
}